; Function Attrs: mustprogress uwtable
define internal void @_ZL33T_UConverter_fromUnicode_UTF32_LEP25UConverterFromUnicodeArgsP10UErrorCode(ptr noundef %0, ptr noundef %1) #1 {
  %3 = alloca [4 x i8], align 1
  %4 = getelementptr inbounds nuw i8, ptr %0, i64 16
  %5 = load ptr, ptr %4, align 8, !tbaa !36
  %6 = getelementptr inbounds nuw i8, ptr %0, i64 24
  %7 = load ptr, ptr %6, align 8, !tbaa !38
  %8 = getelementptr inbounds nuw i8, ptr %0, i64 40
  %9 = load ptr, ptr %8, align 8, !tbaa !39
  call void @llvm.lifetime.start.p0(i64 4, ptr nonnull %3) #7
  %.not = icmp ult ptr %5, %7
  br i1 %.not, label %10, label %91

10:                                               ; preds = %2
  %11 = getelementptr inbounds nuw i8, ptr %0, i64 8
  %12 = load ptr, ptr %11, align 8, !tbaa !40
  %13 = getelementptr inbounds nuw i8, ptr %12, i64 80
  %14 = load i32, ptr %13, align 8, !tbaa !41
  %15 = icmp eq i32 %14, 1
  br i1 %15, label %16, label %21

16:                                               ; preds = %10
  %17 = getelementptr inbounds nuw i8, ptr %0, i64 32
  %18 = getelementptr inbounds nuw i8, ptr %0, i64 48
  tail call void @ucnv_fromUWriteBytes_77(ptr noundef nonnull %12, ptr noundef nonnull @_ZZL33T_UConverter_fromUnicode_UTF32_LEP25UConverterFromUnicodeArgsP10UErrorCodeE3bom, i32 noundef 4, ptr noundef nonnull %17, ptr noundef %9, ptr noundef nonnull %18, i32 noundef -1, ptr noundef %1)
  %19 = load ptr, ptr %11, align 8, !tbaa !40
  %20 = getelementptr inbounds nuw i8, ptr %19, i64 80
  store i32 0, ptr %20, align 8, !tbaa !41
  br label %21

21:                                               ; preds = %16, %10
  %22 = phi ptr [ %19, %16 ], [ %12, %10 ]
  %23 = getelementptr inbounds nuw i8, ptr %0, i64 32
  %24 = load ptr, ptr %23, align 8, !tbaa !42
  %25 = getelementptr inbounds nuw i8, ptr %3, i64 3
  store i8 0, ptr %25, align 1, !tbaa !23
  %26 = getelementptr inbounds nuw i8, ptr %22, i64 84
  %27 = load i32, ptr %26, align 4, !tbaa !43
  %.not73 = icmp eq i32 %27, 0
  br i1 %.not73, label %.loopexit, label %28

28:                                               ; preds = %21
  store i32 0, ptr %26, align 4, !tbaa !43
  br label %41

.loopexit:                                        ; preds = %81, %21
  %.166 = phi ptr [ %24, %21 ], [ %.5, %81 ]
  %.1 = phi ptr [ %5, %21 ], [ %.3, %81 ]
  %29 = icmp ult ptr %.1, %7
  %30 = icmp ult ptr %.166, %9
  %31 = select i1 %29, i1 %30, i1 false
  br i1 %31, label %32, label %84

32:                                               ; preds = %.loopexit
  %33 = getelementptr inbounds nuw i8, ptr %.1, i64 2
  %34 = load i16, ptr %.1, align 2, !tbaa !26
  %35 = zext i16 %34 to i32
  %36 = and i32 %35, 63488
  %37 = icmp eq i32 %36, 55296
  br i1 %37, label %38, label %58

38:                                               ; preds = %32
  %39 = and i32 %35, 56320
  %40 = icmp eq i32 %39, 55296
  br i1 %40, label %41, label %.sink.split.sink.split

41:                                               ; preds = %38, %28
  %.065 = phi ptr [ %24, %28 ], [ %.166, %38 ]
  %.063 = phi i32 [ %27, %28 ], [ %35, %38 ]
  %.062 = phi ptr [ %5, %28 ], [ %33, %38 ]
  %42 = icmp ult ptr %.062, %7
  br i1 %42, label %43, label %53

43:                                               ; preds = %41
  %44 = load i16, ptr %.062, align 2, !tbaa !26
  %45 = zext i16 %44 to i32
  %46 = and i32 %45, 64512
  %47 = icmp eq i32 %46, 56320
  br i1 %47, label %48, label %.sink.split.sink.split

48:                                               ; preds = %43
  %49 = shl i32 %.063, 10
  %50 = add i32 %49, -56613888
  %51 = add i32 %50, %45
  %52 = getelementptr inbounds nuw i8, ptr %.062, i64 2
  br label %58

53:                                               ; preds = %41
  %54 = load ptr, ptr %11, align 8, !tbaa !40
  %55 = getelementptr inbounds nuw i8, ptr %54, i64 84
  store i32 %.063, ptr %55, align 4, !tbaa !43
  %56 = getelementptr inbounds nuw i8, ptr %0, i64 2
  %57 = load i8, ptr %56, align 2, !tbaa !44
  %.not74 = icmp eq i8 %57, 0
  br i1 %.not74, label %84, label %.sink.split

58:                                               ; preds = %48, %32
  %.368 = phi ptr [ %.065, %48 ], [ %.166, %32 ]
  %.164 = phi i32 [ %51, %48 ], [ %35, %32 ]
  %.3 = phi ptr [ %52, %48 ], [ %33, %32 ]
  %59 = lshr i32 %.164, 16
  %60 = trunc i32 %59 to i8
  %61 = and i8 %60, 31
  %62 = getelementptr inbounds nuw i8, ptr %3, i64 2
  store i8 %61, ptr %62, align 1, !tbaa !23
  %63 = lshr i32 %.164, 8
  %64 = trunc i32 %63 to i8
  %65 = getelementptr inbounds nuw i8, ptr %3, i64 1
  store i8 %64, ptr %65, align 1, !tbaa !23
  %66 = trunc i32 %.164 to i8
  store i8 %66, ptr %3, align 1, !tbaa !23
  br label %67

67:                                               ; preds = %58, %81
  %indvars.iv = phi i64 [ 0, %58 ], [ %indvars.iv.next, %81 ]
  %.477 = phi ptr [ %.368, %58 ], [ %.5, %81 ]
  %68 = icmp ult ptr %.477, %9
  %69 = getelementptr inbounds nuw [4 x i8], ptr %3, i64 0, i64 %indvars.iv
  %70 = load i8, ptr %69, align 1, !tbaa !23
  br i1 %68, label %71, label %73

71:                                               ; preds = %67
  %72 = getelementptr inbounds nuw i8, ptr %.477, i64 1
  store i8 %70, ptr %.477, align 1, !tbaa !23
  br label %81

73:                                               ; preds = %67
  %74 = load ptr, ptr %11, align 8, !tbaa !40
  %75 = getelementptr inbounds nuw i8, ptr %74, i64 104
  %76 = getelementptr inbounds nuw i8, ptr %74, i64 91
  %77 = load i8, ptr %76, align 1, !tbaa !45
  %78 = add i8 %77, 1
  store i8 %78, ptr %76, align 1, !tbaa !45
  %79 = sext i8 %77 to i64
  %80 = getelementptr inbounds [32 x i8], ptr %75, i64 0, i64 %79
  store i8 %70, ptr %80, align 1, !tbaa !23
  store i32 15, ptr %1, align 4, !tbaa !30
  br label %81

81:                                               ; preds = %71, %73
  %.5 = phi ptr [ %72, %71 ], [ %.477, %73 ]
  %indvars.iv.next = add nuw nsw i64 %indvars.iv, 1
  %exitcond.not = icmp eq i64 %indvars.iv.next, 4
  br i1 %exitcond.not, label %.loopexit, label %67, !llvm.loop !54

.sink.split.sink.split:                           ; preds = %38, %43
  %.063.sink = phi i32 [ %.063, %43 ], [ %35, %38 ]
  %.267.ph.ph = phi ptr [ %.065, %43 ], [ %.166, %38 ]
  %.2.ph.ph = phi ptr [ %.062, %43 ], [ %33, %38 ]
  %82 = load ptr, ptr %11, align 8, !tbaa !40
  %83 = getelementptr inbounds nuw i8, ptr %82, i64 84
  store i32 %.063.sink, ptr %83, align 4, !tbaa !43
  br label %.sink.split

.sink.split:                                      ; preds = %.sink.split.sink.split, %53
  %.267.ph = phi ptr [ %.065, %53 ], [ %.267.ph.ph, %.sink.split.sink.split ]
  %.2.ph = phi ptr [ %.062, %53 ], [ %.2.ph.ph, %.sink.split.sink.split ]
  store i32 12, ptr %1, align 4, !tbaa !30
  br label %84

84:                                               ; preds = %.sink.split, %53, %.loopexit
  %.267 = phi ptr [ %.166, %.loopexit ], [ %.065, %53 ], [ %.267.ph, %.sink.split ]
  %.2 = phi ptr [ %.1, %.loopexit ], [ %.062, %53 ], [ %.2.ph, %.sink.split ]
  %85 = icmp uge ptr %.2, %7
  %.not75 = icmp ult ptr %.267, %9
  %or.cond = select i1 %85, i1 true, i1 %.not75
  br i1 %or.cond, label %90, label %86

86:                                               ; preds = %84
  %87 = load i32, ptr %1, align 4, !tbaa !30
  %88 = icmp sgt i32 %87, 0
  br i1 %88, label %90, label %89

89:                                               ; preds = %86
  store i32 15, ptr %1, align 4, !tbaa !30
  br label %90

90:                                               ; preds = %89, %86, %84
  store ptr %.267, ptr %23, align 8, !tbaa !42
  store ptr %.2, ptr %4, align 8, !tbaa !36
  br label %91

91:                                               ; preds = %2, %90
  call void @llvm.lifetime.end.p0(i64 4, ptr nonnull %3) #7
  ret void
}